; Function Attrs: mustprogress uwtable
define noundef ptr @_ZN6icu_7718UStringEnumeration5snextER10UErrorCode(ptr noundef nonnull align 8 dereferenceable(128) %0, ptr noundef nonnull align 4 dereferenceable(4) %1) unnamed_addr #9 align 2 {
  %3 = alloca i32, align 4
  call void @llvm.lifetime.start.p0(i64 4, ptr nonnull %3) #18
  %4 = getelementptr inbounds nuw i8, ptr %0, i64 120
  %5 = load ptr, ptr %4, align 8, !tbaa !24
  %6 = call ptr @uenum_unext_77(ptr noundef %5, ptr noundef nonnull %3, ptr noundef nonnull %1)
  %7 = icmp ne ptr %6, null
  %8 = load i32, ptr %1, align 4
  %9 = icmp slt i32 %8, 1
  %or.cond = select i1 %7, i1 %9, i1 false
  br i1 %or.cond, label %10, label %22

10:                                               ; preds = %2
  %11 = getelementptr inbounds nuw i8, ptr %0, i64 8
  %12 = load i32, ptr %3, align 4, !tbaa !19
  call void @_ZN6icu_7713UnicodeString7unBogusEv(ptr noundef nonnull align 8 dereferenceable(64) %11)
  %13 = getelementptr inbounds nuw i8, ptr %0, i64 16
  %14 = load i16, ptr %13, align 8, !tbaa !6
  %15 = icmp slt i16 %14, 0
  %16 = ashr i16 %14, 5
  %17 = sext i16 %16 to i32
  %18 = getelementptr inbounds nuw i8, ptr %0, i64 20
  %19 = load i32, ptr %18, align 4
  %20 = select i1 %15, i32 %19, i32 %17
  %21 = call noundef nonnull align 8 dereferenceable(64) ptr @_ZN6icu_7713UnicodeString9doReplaceEiiPKDsii(ptr noundef nonnull align 8 dereferenceable(64) %11, i32 noundef 0, i32 noundef %20, ptr noundef nonnull %6, i32 noundef 0, i32 noundef %12)
  br label %22

22:                                               ; preds = %2, %10
  %.0 = phi ptr [ %21, %10 ], [ null, %2 ]
  call void @llvm.lifetime.end.p0(i64 4, ptr nonnull %3) #18
  ret ptr %.0
}